target datalayout = "e-m:e-p270:32:32-p271:32:32-p272:64:64-i64:64-i128:128-f80:128-n8:16:32:64-S128"
target triple = "x86_64-pc-linux-gnu"

%struct.timeval = type { i64, i64 }
%struct.evhttp = type { %struct.anon.9, %struct.boundq, %struct.httpcbq, %struct.evconq, %struct.evwsq, i32, i32, %struct.vhostsq, %struct.aliasq, ptr, %struct.timeval, %struct.timeval, i64, i64, i32, ptr, i32, ptr, ptr, ptr, ptr, ptr, ptr, ptr, ptr, ptr, ptr }
%struct.anon.9 = type { ptr, ptr }
%struct.boundq = type { ptr, ptr }
%struct.httpcbq = type { ptr, ptr }
%struct.evconq = type { ptr, ptr }
%struct.evwsq = type { ptr, ptr }
%struct.vhostsq = type { ptr, ptr }
%struct.aliasq = type { ptr, ptr }
%struct.evhttp_cb = type { %struct.anon.12, ptr, ptr, ptr }
%struct.anon.12 = type { ptr, ptr }

@.str.2 = private unnamed_addr constant [11 x i8] c"%s: strdup\00", align 1
@.str.31 = private unnamed_addr constant [11 x i8] c"%s: calloc\00", align 1
@__func__.evhttp_set_cb = private unnamed_addr constant [14 x i8] c"evhttp_set_cb\00", align 1

; Function Attrs: nounwind uwtable
define i32 @evhttp_set_cb(ptr noundef %0, ptr noundef %1, ptr noundef %2, ptr noundef %3) #0 {
  %5 = alloca i32, align 4
  %6 = alloca ptr, align 8
  %7 = alloca ptr, align 8
  %8 = alloca ptr, align 8
  %9 = alloca ptr, align 8
  %10 = alloca ptr, align 8
  %11 = alloca i32, align 4
  store ptr %0, ptr %6, align 8
  store ptr %1, ptr %7, align 8
  store ptr %2, ptr %8, align 8
  store ptr %3, ptr %9, align 8
  call void @llvm.lifetime.start.p0(i64 8, ptr %10) #11
  %12 = load ptr, ptr %6, align 8
  %13 = getelementptr inbounds nuw %struct.evhttp, ptr %12, i32 0, i32 2
  %14 = getelementptr inbounds nuw %struct.httpcbq, ptr %13, i32 0, i32 0
  %15 = load ptr, ptr %14, align 8
  store ptr %15, ptr %10, align 8
  br label %16

16:                                               ; preds = %28, %4
  %17 = load ptr, ptr %10, align 8
  %18 = icmp ne ptr %17, null
  br i1 %18, label %19, label %33

19:                                               ; preds = %16
  %20 = load ptr, ptr %10, align 8
  %21 = getelementptr inbounds nuw %struct.evhttp_cb, ptr %20, i32 0, i32 1
  %22 = load ptr, ptr %21, align 8
  %23 = load ptr, ptr %7, align 8
  %24 = call i32 @strcmp(ptr noundef %22, ptr noundef %23) #12
  %25 = icmp eq i32 %24, 0
  br i1 %25, label %26, label %27

26:                                               ; preds = %19
  store i32 -1, ptr %5, align 4
  store i32 1, ptr %11, align 4
  br label %79

27:                                               ; preds = %19
  br label %28

28:                                               ; preds = %27
  %29 = load ptr, ptr %10, align 8
  %30 = getelementptr inbounds nuw %struct.evhttp_cb, ptr %29, i32 0, i32 0
  %31 = getelementptr inbounds nuw %struct.anon.12, ptr %30, i32 0, i32 0
  %32 = load ptr, ptr %31, align 8
  store ptr %32, ptr %10, align 8
  br label %16, !llvm.loop !29

33:                                               ; preds = %16
  %34 = call ptr @event_mm_calloc_(i64 noundef 1, i64 noundef 40)
  store ptr %34, ptr %10, align 8
  %35 = icmp eq ptr %34, null
  br i1 %35, label %36, label %37

36:                                               ; preds = %33
  call void (ptr, ...) @event_warn(ptr noundef @.str.31, ptr noundef @__func__.evhttp_set_cb)
  store i32 -2, ptr %5, align 4
  store i32 1, ptr %11, align 4
  br label %79

37:                                               ; preds = %33
  %38 = load ptr, ptr %7, align 8
  %39 = call ptr @event_mm_strdup_(ptr noundef %38)
  %40 = load ptr, ptr %10, align 8
  %41 = getelementptr inbounds nuw %struct.evhttp_cb, ptr %40, i32 0, i32 1
  store ptr %39, ptr %41, align 8
  %42 = load ptr, ptr %10, align 8
  %43 = getelementptr inbounds nuw %struct.evhttp_cb, ptr %42, i32 0, i32 1
  %44 = load ptr, ptr %43, align 8
  %45 = icmp eq ptr %44, null
  br i1 %45, label %46, label %48

46:                                               ; preds = %37
  call void (ptr, ...) @event_warn(ptr noundef @.str.2, ptr noundef @__func__.evhttp_set_cb)
  %47 = load ptr, ptr %10, align 8
  call void @event_mm_free_(ptr noundef %47)
  store i32 -3, ptr %5, align 4
  store i32 1, ptr %11, align 4
  br label %79

48:                                               ; preds = %37
  %49 = load ptr, ptr %8, align 8
  %50 = load ptr, ptr %10, align 8
  %51 = getelementptr inbounds nuw %struct.evhttp_cb, ptr %50, i32 0, i32 2
  store ptr %49, ptr %51, align 8
  %52 = load ptr, ptr %9, align 8
  %53 = load ptr, ptr %10, align 8
  %54 = getelementptr inbounds nuw %struct.evhttp_cb, ptr %53, i32 0, i32 3
  store ptr %52, ptr %54, align 8
  br label %55

55:                                               ; preds = %48
  %56 = load ptr, ptr %10, align 8
  %57 = getelementptr inbounds nuw %struct.evhttp_cb, ptr %56, i32 0, i32 0
  %58 = getelementptr inbounds nuw %struct.anon.12, ptr %57, i32 0, i32 0
  store ptr null, ptr %58, align 8
  %59 = load ptr, ptr %6, align 8
  %60 = getelementptr inbounds nuw %struct.evhttp, ptr %59, i32 0, i32 2
  %61 = getelementptr inbounds nuw %struct.httpcbq, ptr %60, i32 0, i32 1
  %62 = load ptr, ptr %61, align 8
  %63 = load ptr, ptr %10, align 8
  %64 = getelementptr inbounds nuw %struct.evhttp_cb, ptr %63, i32 0, i32 0
  %65 = getelementptr inbounds nuw %struct.anon.12, ptr %64, i32 0, i32 1
  store ptr %62, ptr %65, align 8
  %66 = load ptr, ptr %10, align 8
  %67 = load ptr, ptr %6, align 8
  %68 = getelementptr inbounds nuw %struct.evhttp, ptr %67, i32 0, i32 2
  %69 = getelementptr inbounds nuw %struct.httpcbq, ptr %68, i32 0, i32 1
  %70 = load ptr, ptr %69, align 8
  store ptr %66, ptr %70, align 8
  %71 = load ptr, ptr %10, align 8
  %72 = getelementptr inbounds nuw %struct.evhttp_cb, ptr %71, i32 0, i32 0
  %73 = getelementptr inbounds nuw %struct.anon.12, ptr %72, i32 0, i32 0
  %74 = load ptr, ptr %6, align 8
  %75 = getelementptr inbounds nuw %struct.evhttp, ptr %74, i32 0, i32 2
  %76 = getelementptr inbounds nuw %struct.httpcbq, ptr %75, i32 0, i32 1
  store ptr %73, ptr %76, align 8
  br label %77

77:                                               ; preds = %55
  br label %78

78:                                               ; preds = %77
  store i32 0, ptr %5, align 4
  store i32 1, ptr %11, align 4
  br label %79

79:                                               ; preds = %78, %46, %36, %26
  call void @llvm.lifetime.end.p0(i64 8, ptr %10) #11
  %80 = load i32, ptr %5, align 4
  ret i32 %80
}