; Function Attrs: nounwind uwtable
define range(i32 -3, 1) i32 @evhttp_set_cb(ptr noundef captures(none) %0, ptr noundef %1, ptr noundef %2, ptr noundef %3) local_unnamed_addr #0 {
  %5 = getelementptr inbounds nuw i8, ptr %0, i64 32
  br label %6

6:                                                ; preds = %7, %4
  %.0.in = phi ptr [ %5, %4 ], [ %.0, %7 ]
  %.0 = load ptr, ptr %.0.in, align 8
  %.not = icmp eq ptr %.0, null
  br i1 %.not, label %12, label %7

7:                                                ; preds = %6
  %8 = getelementptr inbounds nuw i8, ptr %.0, i64 16
  %9 = load ptr, ptr %8, align 8
  %10 = tail call i32 @strcmp(ptr noundef nonnull dereferenceable(1) %9, ptr noundef nonnull dereferenceable(1) %1) #17
  %11 = icmp eq i32 %10, 0
  br i1 %11, label %.loopexit, label %6, !llvm.loop !30

12:                                               ; preds = %6
  %13 = tail call ptr @event_mm_calloc_(i64 noundef 1, i64 noundef 40) #18
  %14 = icmp eq ptr %13, null
  br i1 %14, label %15, label %16

15:                                               ; preds = %12
  tail call void (ptr, ...) @event_warn(ptr noundef nonnull @.str.31, ptr noundef nonnull @__func__.evhttp_set_cb) #18
  br label %.loopexit

16:                                               ; preds = %12
  %17 = tail call ptr @event_mm_strdup_(ptr noundef %1) #18
  %18 = getelementptr inbounds nuw i8, ptr %13, i64 16
  store ptr %17, ptr %18, align 8
  %19 = icmp eq ptr %17, null
  br i1 %19, label %20, label %21

20:                                               ; preds = %16
  tail call void (ptr, ...) @event_warn(ptr noundef nonnull @.str.2, ptr noundef nonnull @__func__.evhttp_set_cb) #18
  tail call void @event_mm_free_(ptr noundef nonnull %13) #18
  br label %.loopexit

21:                                               ; preds = %16
  %22 = getelementptr inbounds nuw i8, ptr %13, i64 24
  store ptr %2, ptr %22, align 8
  %23 = getelementptr inbounds nuw i8, ptr %13, i64 32
  store ptr %3, ptr %23, align 8
  store ptr null, ptr %13, align 8
  %24 = getelementptr inbounds nuw i8, ptr %0, i64 40
  %25 = load ptr, ptr %24, align 8
  %26 = getelementptr inbounds nuw i8, ptr %13, i64 8
  store ptr %25, ptr %26, align 8
  store ptr %13, ptr %25, align 8
  store ptr %13, ptr %24, align 8
  br label %.loopexit

.loopexit:                                        ; preds = %7, %21, %20, %15
  %.020 = phi i32 [ -2, %15 ], [ -3, %20 ], [ 0, %21 ], [ -1, %7 ]
  ret i32 %.020
}